; Function Attrs: mustprogress uwtable
define hidden noundef zeroext i1 @_ZN4cvc58internal6theory7strings4Word10isRepeatedENS0_12NodeTemplateILb0EEE(ptr noundef readonly captures(none) %0) local_unnamed_addr #3 align 2 personality ptr @__gxx_personality_v0 {
  %2 = alloca %"class.cvc5::internal::FatalStream", align 1
  %3 = load ptr, ptr %0, align 8, !tbaa !28
  %4 = getelementptr inbounds nuw i8, ptr %3, i64 8
  %5 = load i64, ptr %4, align 8
  %6 = trunc i64 %5 to i32
  %7 = and i32 %6, 1023
  switch i32 %7, label %14 [
    i32 341, label %8
    i32 343, label %11
  ]

8:                                                ; preds = %1
  %9 = tail call noundef nonnull align 8 dereferenceable(24) ptr @_ZNK4cvc58internal4expr9NodeValue8getConstINS0_6StringEEERKT_v(ptr noundef nonnull align 8 dereferenceable(24) %3)
  %10 = tail call noundef zeroext i1 @_ZNK4cvc58internal6String10isRepeatedEv(ptr noundef nonnull align 8 dereferenceable(24) %9)
  br label %21

11:                                               ; preds = %1
  %12 = tail call noundef nonnull align 8 dereferenceable(32) ptr @_ZNK4cvc58internal4expr9NodeValue8getConstINS0_8SequenceEEERKT_v(ptr noundef nonnull align 8 dereferenceable(24) %3)
  %13 = tail call noundef zeroext i1 @_ZNK4cvc58internal8Sequence10isRepeatedEv(ptr noundef nonnull align 8 dereferenceable(32) %12)
  br label %21

14:                                               ; preds = %1
  call void @llvm.lifetime.start.p0(i64 1, ptr nonnull %2) #21
  call void @_ZN4cvc58internal11FatalStreamC1EPKcS3_i(ptr noundef nonnull align 1 dereferenceable(1) %2, ptr noundef nonnull @__PRETTY_FUNCTION__._ZN4cvc58internal6theory7strings4Word10isRepeatedENS0_12NodeTemplateILb0EEE, ptr noundef nonnull @.str, i32 noundef 475)
  %15 = invoke noundef nonnull align 8 dereferenceable(8) ptr @_ZN4cvc58internal11FatalStream6streamEv(ptr noundef nonnull align 1 dereferenceable(1) %2)
          to label %16 unwind label %19

16:                                               ; preds = %14
  %17 = invoke noundef nonnull align 8 dereferenceable(8) ptr @_ZStlsISt11char_traitsIcEERSt13basic_ostreamIcT_ES5_PKc(ptr noundef nonnull align 8 dereferenceable(8) %15, ptr noundef nonnull @.str.1)
          to label %18 unwind label %19

18:                                               ; preds = %16
  call void @_ZN4cvc58internal11FatalStreamD1Ev(ptr noundef nonnull align 1 dereferenceable(1) %2) #23
  unreachable

19:                                               ; preds = %16, %14
  %20 = landingpad { ptr, i32 }
          cleanup
  call void @_ZN4cvc58internal11FatalStreamD1Ev(ptr noundef nonnull align 1 dereferenceable(1) %2) #23
  unreachable

21:                                               ; preds = %11, %8
  %.0 = phi i1 [ %10, %8 ], [ %13, %11 ]
  ret i1 %.0
}